target datalayout = "e-m:e-p270:32:32-p271:32:32-p272:64:64-i64:64-i128:128-f80:128-n8:16:32:64-S128"
target triple = "x86_64-pc-linux-gnu"

%struct.H5VL_loc_params_t = type { i32, i32, %union.anon }
%union.anon = type { %struct.H5VL_loc_by_idx }
%struct.H5VL_loc_by_idx = type { ptr, i32, i32, i64, i64 }
%struct.H5VL_link_get_args_t = type { i32, %union.anon.5 }
%union.anon.5 = type { %struct.anon.7 }
%struct.anon.7 = type { i64, ptr, ptr }

@H5_libinit_g = external global i8, align 1
@H5_libterm_g = external global i8, align 1
@.str = private unnamed_addr constant [103 x i8] c"generated/home/dtcxzyw/WorkSpace/Projects/compilers/llvm-opt-benchmark/bench/hdf5/hdf5/src/H5Gdeprec.c\00", align 1
@H5E_FUNC_g = external global i64, align 8
@H5E_CANTINIT_g = external global i64, align 8
@.str.1 = private unnamed_addr constant [30 x i8] c"library initialization failed\00", align 1
@H5E_CANTSET_g = external global i64, align 8
@.str.2 = private unnamed_addr constant [22 x i8] c"can't set API context\00", align 1
@H5E_ARGS_g = external global i64, align 8
@H5E_BADTYPE_g = external global i64, align 8
@H5E_SYM_g = external global i64, align 8
@H5E_CANTGET_g = external global i64, align 8
@.str.10 = private unnamed_addr constant [40 x i8] c"can't set collective metadata read info\00", align 1
@.str.11 = private unnamed_addr constant [28 x i8] c"invalid location identifier\00", align 1
@H5P_LST_DATASET_XFER_ID_g = external global i64, align 8
@H5P_LST_LINK_ACCESS_ID_g = external global i64, align 8
@__func__.H5Gget_objname_by_idx = private unnamed_addr constant [22 x i8] c"H5Gget_objname_by_idx\00", align 1
@.str.41 = private unnamed_addr constant [2 x i8] c".\00", align 1
@.str.42 = private unnamed_addr constant [22 x i8] c"can't get object name\00", align 1

; Function Attrs: nounwind uwtable
define i64 @H5Gget_objname_by_idx(i64 noundef %0, i64 noundef %1, ptr noundef %2, i64 noundef %3) #0 {
  %5 = alloca i64, align 8
  %6 = alloca i64, align 8
  %7 = alloca ptr, align 8
  %8 = alloca i64, align 8
  %9 = alloca ptr, align 8
  %10 = alloca %struct.H5VL_link_get_args_t, align 8
  %11 = alloca %struct.H5VL_loc_params_t, align 8
  %12 = alloca i64, align 8
  %13 = alloca i64, align 8
  %14 = alloca i8, align 1
  %15 = alloca i8, align 1
  store i64 %0, ptr %5, align 8
  store i64 %1, ptr %6, align 8
  store ptr %2, ptr %7, align 8
  store i64 %3, ptr %8, align 8
  store i64 0, ptr %12, align 8
  store i8 0, ptr %14, align 1
  store i8 0, ptr %15, align 1
  %16 = load i8, ptr @H5_libinit_g, align 1
  %17 = trunc i8 %16 to i1
  br i1 %17, label %22, label %18

18:                                               ; preds = %4
  %19 = load i8, ptr @H5_libterm_g, align 1
  %20 = trunc i8 %19 to i1
  %21 = xor i1 %20, true
  br label %22

22:                                               ; preds = %18, %4
  %23 = phi i1 [ false, %4 ], [ %21, %18 ]
  %24 = xor i1 %23, true
  %25 = xor i1 %24, true
  %26 = zext i1 %25 to i32
  %27 = sext i32 %26 to i64
  %28 = icmp ne i64 %27, 0
  br i1 %28, label %29, label %53

29:                                               ; preds = %22
  %30 = call i32 @H5_init_library()
  %31 = icmp slt i32 %30, 0
  %32 = xor i1 %31, true
  %33 = xor i1 %32, true
  %34 = zext i1 %33 to i32
  %35 = sext i32 %34 to i64
  %36 = icmp ne i64 %35, 0
  br i1 %36, label %37, label %52

37:                                               ; preds = %29
  br label %38

38:                                               ; preds = %37
  br label %39

39:                                               ; preds = %38
  br label %40

40:                                               ; preds = %39
  %41 = load i64, ptr @H5E_FUNC_g, align 8
  %42 = load i64, ptr @H5E_CANTINIT_g, align 8
  %43 = call i32 (ptr, ptr, i32, i64, i64, ptr, ...) @H5E_printf_stack(ptr noundef @.str, ptr noundef @__func__.H5Gget_objname_by_idx, i32 noundef 1136, i64 noundef %41, i64 noundef %42, ptr noundef @.str.1)
  br label %44

44:                                               ; preds = %40
  store i8 1, ptr %15, align 1
  %45 = load i8, ptr %15, align 1
  %46 = trunc i8 %45 to i1
  %47 = zext i1 %46 to i8
  store i8 %47, ptr %15, align 1
  br label %48

48:                                               ; preds = %44
  br label %49

49:                                               ; preds = %48
  store i64 -1, ptr %13, align 8
  br label %163

50:                                               ; No predecessors!
  br label %51

51:                                               ; preds = %50
  br label %52

52:                                               ; preds = %51, %29
  br label %53

53:                                               ; preds = %52, %22
  %54 = call i32 @H5CX_push()
  %55 = icmp slt i32 %54, 0
  %56 = xor i1 %55, true
  %57 = xor i1 %56, true
  %58 = zext i1 %57 to i32
  %59 = sext i32 %58 to i64
  %60 = icmp ne i64 %59, 0
  br i1 %60, label %61, label %76

61:                                               ; preds = %53
  br label %62

62:                                               ; preds = %61
  br label %63

63:                                               ; preds = %62
  br label %64

64:                                               ; preds = %63
  %65 = load i64, ptr @H5E_FUNC_g, align 8
  %66 = load i64, ptr @H5E_CANTSET_g, align 8
  %67 = call i32 (ptr, ptr, i32, i64, i64, ptr, ...) @H5E_printf_stack(ptr noundef @.str, ptr noundef @__func__.H5Gget_objname_by_idx, i32 noundef 1136, i64 noundef %65, i64 noundef %66, ptr noundef @.str.2)
  br label %68

68:                                               ; preds = %64
  store i8 1, ptr %15, align 1
  %69 = load i8, ptr %15, align 1
  %70 = trunc i8 %69 to i1
  %71 = zext i1 %70 to i8
  store i8 %71, ptr %15, align 1
  br label %72

72:                                               ; preds = %68
  br label %73

73:                                               ; preds = %72
  store i64 -1, ptr %13, align 8
  br label %163

74:                                               ; No predecessors!
  br label %75

75:                                               ; preds = %74
  br label %77

76:                                               ; preds = %53
  store i8 1, ptr %14, align 1
  br label %77

77:                                               ; preds = %76, %75
  %78 = call i32 @H5E_clear_stack()
  %79 = load i64, ptr %5, align 8
  %80 = call i32 @H5CX_set_loc(i64 noundef %79)
  %81 = icmp slt i32 %80, 0
  br i1 %81, label %82, label %97

82:                                               ; preds = %77
  br label %83

83:                                               ; preds = %82
  br label %84

84:                                               ; preds = %83
  br label %85

85:                                               ; preds = %84
  %86 = load i64, ptr @H5E_SYM_g, align 8
  %87 = load i64, ptr @H5E_CANTSET_g, align 8
  %88 = call i32 (ptr, ptr, i32, i64, i64, ptr, ...) @H5E_printf_stack(ptr noundef @.str, ptr noundef @__func__.H5Gget_objname_by_idx, i32 noundef 1140, i64 noundef %86, i64 noundef %87, ptr noundef @.str.10)
  br label %89

89:                                               ; preds = %85
  store i8 1, ptr %15, align 1
  %90 = load i8, ptr %15, align 1
  %91 = trunc i8 %90 to i1
  %92 = zext i1 %91 to i8
  store i8 %92, ptr %15, align 1
  br label %93

93:                                               ; preds = %89
  br label %94

94:                                               ; preds = %93
  store i64 -1, ptr %13, align 8
  br label %163

95:                                               ; No predecessors!
  br label %96

96:                                               ; preds = %95
  br label %97

97:                                               ; preds = %96, %77
  %98 = getelementptr inbounds %struct.H5VL_loc_params_t, ptr %11, i32 0, i32 1
  store i32 2, ptr %98, align 4
  %99 = getelementptr inbounds %struct.H5VL_loc_params_t, ptr %11, i32 0, i32 2
  %100 = getelementptr inbounds %struct.H5VL_loc_by_idx, ptr %99, i32 0, i32 0
  store ptr @.str.41, ptr %100, align 8
  %101 = getelementptr inbounds %struct.H5VL_loc_params_t, ptr %11, i32 0, i32 2
  %102 = getelementptr inbounds %struct.H5VL_loc_by_idx, ptr %101, i32 0, i32 1
  store i32 0, ptr %102, align 8
  %103 = getelementptr inbounds %struct.H5VL_loc_params_t, ptr %11, i32 0, i32 2
  %104 = getelementptr inbounds %struct.H5VL_loc_by_idx, ptr %103, i32 0, i32 2
  store i32 0, ptr %104, align 4
  %105 = load i64, ptr %6, align 8
  %106 = getelementptr inbounds %struct.H5VL_loc_params_t, ptr %11, i32 0, i32 2
  %107 = getelementptr inbounds %struct.H5VL_loc_by_idx, ptr %106, i32 0, i32 3
  store i64 %105, ptr %107, align 8
  %108 = load i64, ptr @H5P_LST_LINK_ACCESS_ID_g, align 8
  %109 = getelementptr inbounds %struct.H5VL_loc_params_t, ptr %11, i32 0, i32 2
  %110 = getelementptr inbounds %struct.H5VL_loc_by_idx, ptr %109, i32 0, i32 4
  store i64 %108, ptr %110, align 8
  %111 = load i64, ptr %5, align 8
  %112 = call i32 @H5I_get_type(i64 noundef %111)
  %113 = getelementptr inbounds %struct.H5VL_loc_params_t, ptr %11, i32 0, i32 0
  store i32 %112, ptr %113, align 8
  %114 = load i64, ptr %5, align 8
  %115 = call ptr @H5I_object(i64 noundef %114)
  store ptr %115, ptr %9, align 8
  %116 = icmp eq ptr null, %115
  br i1 %116, label %117, label %132

117:                                              ; preds = %97
  br label %118

118:                                              ; preds = %117
  br label %119

119:                                              ; preds = %118
  br label %120

120:                                              ; preds = %119
  %121 = load i64, ptr @H5E_ARGS_g, align 8
  %122 = load i64, ptr @H5E_BADTYPE_g, align 8
  %123 = call i32 (ptr, ptr, i32, i64, i64, ptr, ...) @H5E_printf_stack(ptr noundef @.str, ptr noundef @__func__.H5Gget_objname_by_idx, i32 noundef 1153, i64 noundef %121, i64 noundef %122, ptr noundef @.str.11)
  br label %124

124:                                              ; preds = %120
  store i8 1, ptr %15, align 1
  %125 = load i8, ptr %15, align 1
  %126 = trunc i8 %125 to i1
  %127 = zext i1 %126 to i8
  store i8 %127, ptr %15, align 1
  br label %128

128:                                              ; preds = %124
  br label %129

129:                                              ; preds = %128
  store i64 -1, ptr %13, align 8
  br label %163

130:                                              ; No predecessors!
  br label %131

131:                                              ; preds = %130
  br label %132

132:                                              ; preds = %131, %97
  %133 = getelementptr inbounds %struct.H5VL_link_get_args_t, ptr %10, i32 0, i32 0
  store i32 1, ptr %133, align 8
  %134 = load i64, ptr %8, align 8
  %135 = getelementptr inbounds %struct.H5VL_link_get_args_t, ptr %10, i32 0, i32 1
  %136 = getelementptr inbounds %struct.anon.7, ptr %135, i32 0, i32 0
  store i64 %134, ptr %136, align 8
  %137 = load ptr, ptr %7, align 8
  %138 = getelementptr inbounds %struct.H5VL_link_get_args_t, ptr %10, i32 0, i32 1
  %139 = getelementptr inbounds %struct.anon.7, ptr %138, i32 0, i32 1
  store ptr %137, ptr %139, align 8
  %140 = getelementptr inbounds %struct.H5VL_link_get_args_t, ptr %10, i32 0, i32 1
  %141 = getelementptr inbounds %struct.anon.7, ptr %140, i32 0, i32 2
  store ptr %12, ptr %141, align 8
  %142 = load ptr, ptr %9, align 8
  %143 = load i64, ptr @H5P_LST_DATASET_XFER_ID_g, align 8
  %144 = call i32 @H5VL_link_get(ptr noundef %142, ptr noundef %11, ptr noundef %10, i64 noundef %143, ptr noundef null)
  %145 = icmp slt i32 %144, 0
  br i1 %145, label %146, label %161

146:                                              ; preds = %132
  br label %147

147:                                              ; preds = %146
  br label %148

148:                                              ; preds = %147
  br label %149

149:                                              ; preds = %148
  %150 = load i64, ptr @H5E_SYM_g, align 8
  %151 = load i64, ptr @H5E_CANTGET_g, align 8
  %152 = call i32 (ptr, ptr, i32, i64, i64, ptr, ...) @H5E_printf_stack(ptr noundef @.str, ptr noundef @__func__.H5Gget_objname_by_idx, i32 noundef 1163, i64 noundef %150, i64 noundef %151, ptr noundef @.str.42)
  br label %153

153:                                              ; preds = %149
  store i8 1, ptr %15, align 1
  %154 = load i8, ptr %15, align 1
  %155 = trunc i8 %154 to i1
  %156 = zext i1 %155 to i8
  store i8 %156, ptr %15, align 1
  br label %157

157:                                              ; preds = %153
  br label %158

158:                                              ; preds = %157
  store i64 -1, ptr %13, align 8
  br label %163

159:                                              ; No predecessors!
  br label %160

160:                                              ; preds = %159
  br label %161

161:                                              ; preds = %160, %132
  %162 = load i64, ptr %12, align 8
  store i64 %162, ptr %13, align 8
  br label %163

163:                                              ; preds = %161, %158, %129, %94, %73, %49
  %164 = load i8, ptr %14, align 1
  %165 = trunc i8 %164 to i1
  %166 = xor i1 %165, true
  %167 = xor i1 %166, true
  %168 = zext i1 %167 to i32
  %169 = sext i32 %168 to i64
  %170 = icmp ne i64 %169, 0
  br i1 %170, label %171, label %173

171:                                              ; preds = %163
  %172 = call i32 @H5CX_pop(i1 noundef zeroext true)
  store i8 0, ptr %14, align 1
  br label %173

173:                                              ; preds = %171, %163
  %174 = load i8, ptr %15, align 1
  %175 = trunc i8 %174 to i1
  %176 = xor i1 %175, true
  %177 = xor i1 %176, true
  %178 = zext i1 %177 to i32
  %179 = sext i32 %178 to i64
  %180 = icmp ne i64 %179, 0
  br i1 %180, label %181, label %183

181:                                              ; preds = %173
  %182 = call i32 @H5E_dump_api_stack()
  br label %183

183:                                              ; preds = %181, %173
  %184 = load i64, ptr %13, align 8
  ret i64 %184
}