; Function Attrs: nounwind uwtable
define i64 @H5Gget_objname_by_idx(i64 noundef %0, i64 noundef %1, ptr noundef %2, i64 noundef %3) local_unnamed_addr #1 {
  %5 = alloca %struct.H5VL_link_get_args_t, align 8
  %6 = alloca %struct.H5VL_loc_params_t, align 8
  %7 = alloca i64, align 8
  store i64 0, ptr %7, align 8
  %8 = load i8, ptr @H5_libinit_g, align 1
  %9 = trunc i8 %8 to i1
  %10 = load i8, ptr @H5_libterm_g, align 1
  %11 = trunc i8 %10 to i1
  %12 = select i1 %9, i1 true, i1 %11
  br i1 %12, label %20, label %13

13:                                               ; preds = %4
  %14 = tail call i32 @H5_init_library() #4
  %15 = icmp slt i32 %14, 0
  br i1 %15, label %16, label %20

16:                                               ; preds = %13
  %17 = load i64, ptr @H5E_FUNC_g, align 8
  %18 = load i64, ptr @H5E_CANTINIT_g, align 8
  %19 = tail call i32 (ptr, ptr, i32, i64, i64, ptr, ...) @H5E_printf_stack(ptr noundef nonnull @.str, ptr noundef nonnull @__func__.H5Gget_objname_by_idx, i32 noundef 1136, i64 noundef %17, i64 noundef %18, ptr noundef nonnull @.str.1) #4
  br label %.thread25

20:                                               ; preds = %13, %4
  %21 = tail call i32 @H5CX_push() #4
  %22 = icmp slt i32 %21, 0
  br i1 %22, label %23, label %27

23:                                               ; preds = %20
  %24 = load i64, ptr @H5E_FUNC_g, align 8
  %25 = load i64, ptr @H5E_CANTSET_g, align 8
  %26 = tail call i32 (ptr, ptr, i32, i64, i64, ptr, ...) @H5E_printf_stack(ptr noundef nonnull @.str, ptr noundef nonnull @__func__.H5Gget_objname_by_idx, i32 noundef 1136, i64 noundef %24, i64 noundef %25, ptr noundef nonnull @.str.2) #4
  br label %.thread25

27:                                               ; preds = %20
  %28 = tail call i32 @H5E_clear_stack() #4
  %29 = tail call i32 @H5CX_set_loc(i64 noundef %0) #4
  %30 = icmp slt i32 %29, 0
  br i1 %30, label %31, label %35

31:                                               ; preds = %27
  %32 = load i64, ptr @H5E_SYM_g, align 8
  %33 = load i64, ptr @H5E_CANTSET_g, align 8
  %34 = tail call i32 (ptr, ptr, i32, i64, i64, ptr, ...) @H5E_printf_stack(ptr noundef nonnull @.str, ptr noundef nonnull @__func__.H5Gget_objname_by_idx, i32 noundef 1140, i64 noundef %32, i64 noundef %33, ptr noundef nonnull @.str.10) #4
  br label %.thread31

35:                                               ; preds = %27
  %36 = getelementptr inbounds i8, ptr %6, i64 4
  store i32 2, ptr %36, align 4
  %37 = getelementptr inbounds i8, ptr %6, i64 8
  store ptr @.str.41, ptr %37, align 8
  %38 = getelementptr inbounds i8, ptr %6, i64 16
  store i32 0, ptr %38, align 8
  %39 = getelementptr inbounds i8, ptr %6, i64 20
  store i32 0, ptr %39, align 4
  %40 = getelementptr inbounds i8, ptr %6, i64 24
  store i64 %1, ptr %40, align 8
  %41 = load i64, ptr @H5P_LST_LINK_ACCESS_ID_g, align 8
  %42 = getelementptr inbounds i8, ptr %6, i64 32
  store i64 %41, ptr %42, align 8
  %43 = tail call i32 @H5I_get_type(i64 noundef %0) #4
  store i32 %43, ptr %6, align 8
  %44 = tail call ptr @H5I_object(i64 noundef %0) #4
  %45 = icmp eq ptr %44, null
  br i1 %45, label %46, label %50

46:                                               ; preds = %35
  %47 = load i64, ptr @H5E_ARGS_g, align 8
  %48 = load i64, ptr @H5E_BADTYPE_g, align 8
  %49 = tail call i32 (ptr, ptr, i32, i64, i64, ptr, ...) @H5E_printf_stack(ptr noundef nonnull @.str, ptr noundef nonnull @__func__.H5Gget_objname_by_idx, i32 noundef 1153, i64 noundef %47, i64 noundef %48, ptr noundef nonnull @.str.11) #4
  br label %.thread31

50:                                               ; preds = %35
  store i32 1, ptr %5, align 8
  %51 = getelementptr inbounds i8, ptr %5, i64 8
  store i64 %3, ptr %51, align 8
  %52 = getelementptr inbounds i8, ptr %5, i64 16
  store ptr %2, ptr %52, align 8
  %53 = getelementptr inbounds i8, ptr %5, i64 24
  store ptr %7, ptr %53, align 8
  %54 = load i64, ptr @H5P_LST_DATASET_XFER_ID_g, align 8
  %55 = call i32 @H5VL_link_get(ptr noundef nonnull %44, ptr noundef nonnull %6, ptr noundef nonnull %5, i64 noundef %54, ptr noundef null) #4
  %56 = icmp slt i32 %55, 0
  br i1 %56, label %57, label %62

57:                                               ; preds = %50
  %58 = load i64, ptr @H5E_SYM_g, align 8
  %59 = load i64, ptr @H5E_CANTGET_g, align 8
  %60 = call i32 (ptr, ptr, i32, i64, i64, ptr, ...) @H5E_printf_stack(ptr noundef nonnull @.str, ptr noundef nonnull @__func__.H5Gget_objname_by_idx, i32 noundef 1163, i64 noundef %58, i64 noundef %59, ptr noundef nonnull @.str.42) #4
  br label %.thread31

.thread31:                                        ; preds = %57, %46, %31
  %61 = call i32 @H5CX_pop(i1 noundef zeroext true) #4
  br label %.thread25

62:                                               ; preds = %50
  %63 = load i64, ptr %7, align 8
  %64 = call i32 @H5CX_pop(i1 noundef zeroext true) #4
  br label %66

.thread25:                                        ; preds = %23, %16, %.thread31
  %65 = call i32 @H5E_dump_api_stack() #4
  br label %66

66:                                               ; preds = %62, %.thread25
  %.0152028 = phi i64 [ -1, %.thread25 ], [ %63, %62 ]
  ret i64 %.0152028
}